; Function Attrs: nounwind uwtable
define i32 @pmix20_bfrop_unpack_bo(ptr noundef %0, ptr noundef %1, ptr noundef %2, ptr noundef readonly captures(none) %3, i16 noundef zeroext %4) local_unnamed_addr #0 {
  %6 = alloca i32, align 4
  call void @llvm.lifetime.start.p0(i64 4, ptr nonnull %6) #10
  %7 = load i32, ptr getelementptr inbounds nuw (i8, ptr @pmix_bfrops_base_framework, i64 76), align 4, !tbaa !7
  %or.cond = icmp ult i32 %7, 64
  br i1 %or.cond, label %8, label %15

8:                                                ; preds = %5
  %9 = zext nneg i32 %7 to i64
  %10 = getelementptr inbounds nuw [0 x %struct.pmix_output_desc_t], ptr @pmix_output_info, i64 0, i64 %9, i32 2
  %11 = load i32, ptr %10, align 4, !tbaa !19
  %12 = icmp sgt i32 %11, 19
  br i1 %12, label %13, label %15

13:                                               ; preds = %8
  %14 = load i32, ptr %3, align 4, !tbaa !3
  tail call void (i32, ptr, ...) @pmix_output(i32 noundef %7, ptr noundef nonnull @.str.25, i32 noundef %14) #10
  br label %15

15:                                               ; preds = %13, %8, %5
  %16 = load i32, ptr %3, align 4, !tbaa !3
  %17 = icmp sgt i32 %16, 0
  br i1 %17, label %.lr.ph, label %pmix20_bfrop_unpack_byte.exit

.lr.ph:                                           ; preds = %15
  %18 = getelementptr inbounds nuw i8, ptr %1, i64 144
  %wide.trip.count = zext nneg i32 %16 to i64
  br label %19

19:                                               ; preds = %.lr.ph, %43
  %indvars.iv = phi i64 [ 0, %.lr.ph ], [ %indvars.iv.next, %43 ]
  %20 = getelementptr inbounds nuw %struct.pmix_byte_object, ptr %2, i64 %indvars.iv
  call void @llvm.memset.p0.i64(ptr noundef nonnull align 8 dereferenceable(16) %20, i8 0, i64 16, i1 false)
  store i32 1, ptr %6, align 4, !tbaa !3
  %21 = getelementptr inbounds nuw i8, ptr %20, i64 8
  %22 = call i32 @pmix20_bfrop_unpack_sizet(ptr noundef %0, ptr noundef %1, ptr noundef nonnull %21, ptr noundef nonnull %6, i16 zeroext poison)
  %.not = icmp eq i32 %22, 0
  br i1 %.not, label %23, label %pmix20_bfrop_unpack_byte.exit

23:                                               ; preds = %19
  %24 = load i64, ptr %21, align 8, !tbaa !113
  %.not32 = icmp eq i64 %24, 0
  br i1 %.not32, label %43, label %25

25:                                               ; preds = %23
  %26 = call noalias ptr @malloc(i64 noundef %24) #12
  store ptr %26, ptr %20, align 8, !tbaa !115
  %27 = trunc i64 %24 to i32
  store i32 %27, ptr %6, align 4, !tbaa !3
  %28 = load i32, ptr getelementptr inbounds nuw (i8, ptr @pmix_bfrops_base_framework, i64 76), align 4, !tbaa !7
  %or.cond.i = icmp ult i32 %28, 64
  br i1 %or.cond.i, label %29, label %35

29:                                               ; preds = %25
  %30 = zext nneg i32 %28 to i64
  %31 = getelementptr inbounds nuw [0 x %struct.pmix_output_desc_t], ptr @pmix_output_info, i64 0, i64 %30, i32 2
  %32 = load i32, ptr %31, align 4, !tbaa !19
  %33 = icmp sgt i32 %32, 19
  br i1 %33, label %34, label %35

34:                                               ; preds = %29
  call void (i32, ptr, ...) @pmix_output(i32 noundef %28, ptr noundef nonnull @.str.5, i32 noundef %27) #10
  %.pre = load i32, ptr %6, align 4, !tbaa !3
  br label %35

35:                                               ; preds = %34, %29, %25
  %36 = phi i32 [ %.pre, %34 ], [ %27, %29 ], [ %27, %25 ]
  %37 = sext i32 %36 to i64
  %38 = call zeroext i1 @pmix_bfrop_too_small(ptr noundef %1, i64 noundef %37) #10
  br i1 %38, label %pmix20_bfrop_unpack_byte.exit, label %pmix20_bfrop_unpack_byte.exit.thread

pmix20_bfrop_unpack_byte.exit.thread:             ; preds = %35
  %39 = load ptr, ptr %18, align 8, !tbaa !34
  %40 = load i32, ptr %6, align 4, !tbaa !3
  %41 = sext i32 %40 to i64
  call void @llvm.memcpy.p0.p0.i64(ptr align 1 %26, ptr align 1 %39, i64 %41, i1 false)
  %42 = getelementptr inbounds i8, ptr %39, i64 %41
  store ptr %42, ptr %18, align 8, !tbaa !34
  br label %43

43:                                               ; preds = %pmix20_bfrop_unpack_byte.exit.thread, %23
  %indvars.iv.next = add nuw nsw i64 %indvars.iv, 1
  %exitcond.not = icmp eq i64 %indvars.iv.next, %wide.trip.count
  br i1 %exitcond.not, label %pmix20_bfrop_unpack_byte.exit, label %19, !llvm.loop !116

pmix20_bfrop_unpack_byte.exit:                    ; preds = %19, %43, %35, %15
  %.0 = phi i32 [ 0, %15 ], [ -50, %35 ], [ 0, %43 ], [ %22, %19 ]
  call void @llvm.lifetime.end.p0(i64 4, ptr nonnull %6) #10
  ret i32 %.0
}